target datalayout = "e-m:e-p270:32:32-p271:32:32-p272:64:64-i64:64-i128:128-f80:128-n8:16:32:64-S128"
target triple = "x86_64-pc-linux-gnu"

%struct.normal_encoding = type { %struct.encoding, [256 x i8], ptr, ptr, ptr, ptr, ptr, ptr, ptr, ptr, ptr }
%struct.encoding = type { [3 x ptr], [2 x ptr], ptr, ptr, ptr, ptr, ptr, ptr, ptr, ptr, ptr, ptr, i32, i8, i8 }

; Function Attrs: nounwind uwtable
define internal i32 @normal_scanComment(ptr noundef %0, ptr noundef %1, ptr noundef %2, ptr noundef %3) #0 {
  %5 = alloca i32, align 4
  %6 = alloca ptr, align 8
  %7 = alloca ptr, align 8
  %8 = alloca ptr, align 8
  %9 = alloca ptr, align 8
  store ptr %0, ptr %6, align 8, !tbaa !45
  store ptr %1, ptr %7, align 8, !tbaa !4
  store ptr %2, ptr %8, align 8, !tbaa !4
  store ptr %3, ptr %9, align 8, !tbaa !9
  %10 = load ptr, ptr %8, align 8, !tbaa !4
  %11 = load ptr, ptr %7, align 8, !tbaa !4
  %12 = ptrtoint ptr %10 to i64
  %13 = ptrtoint ptr %11 to i64
  %14 = sub i64 %12, %13
  %15 = icmp sge i64 %14, 1
  br i1 %15, label %16, label %155

16:                                               ; preds = %4
  %17 = load ptr, ptr %7, align 8, !tbaa !4
  %18 = load i8, ptr %17, align 1, !tbaa !13
  %19 = sext i8 %18 to i32
  %20 = icmp eq i32 %19, 45
  br i1 %20, label %24, label %21

21:                                               ; preds = %16
  %22 = load ptr, ptr %7, align 8, !tbaa !4
  %23 = load ptr, ptr %9, align 8, !tbaa !9
  store ptr %22, ptr %23, align 8, !tbaa !4
  store i32 0, ptr %5, align 4
  br label %156

24:                                               ; preds = %16
  %25 = load ptr, ptr %7, align 8, !tbaa !4
  %26 = getelementptr inbounds i8, ptr %25, i64 1
  store ptr %26, ptr %7, align 8, !tbaa !4
  br label %27

27:                                               ; preds = %153, %24
  %28 = load ptr, ptr %8, align 8, !tbaa !4
  %29 = load ptr, ptr %7, align 8, !tbaa !4
  %30 = ptrtoint ptr %28 to i64
  %31 = ptrtoint ptr %29 to i64
  %32 = sub i64 %30, %31
  %33 = icmp sge i64 %32, 1
  br i1 %33, label %34, label %154

34:                                               ; preds = %27
  %35 = load ptr, ptr %6, align 8, !tbaa !45
  %36 = getelementptr inbounds nuw %struct.normal_encoding, ptr %35, i32 0, i32 1
  %37 = load ptr, ptr %7, align 8, !tbaa !4
  %38 = load i8, ptr %37, align 1, !tbaa !13
  %39 = zext i8 %38 to i64
  %40 = getelementptr inbounds nuw [256 x i8], ptr %36, i64 0, i64 %39
  %41 = load i8, ptr %40, align 1, !tbaa !13
  %42 = zext i8 %41 to i32
  switch i32 %42, label %150 [
    i32 5, label %43
    i32 6, label %65
    i32 7, label %87
    i32 0, label %109
    i32 1, label %109
    i32 8, label %109
    i32 27, label %112
  ]

43:                                               ; preds = %34
  %44 = load ptr, ptr %8, align 8, !tbaa !4
  %45 = load ptr, ptr %7, align 8, !tbaa !4
  %46 = ptrtoint ptr %44 to i64
  %47 = ptrtoint ptr %45 to i64
  %48 = sub i64 %46, %47
  %49 = icmp slt i64 %48, 2
  br i1 %49, label %50, label %51

50:                                               ; preds = %43
  store i32 -2, ptr %5, align 4
  br label %156

51:                                               ; preds = %43
  %52 = load ptr, ptr %6, align 8, !tbaa !45
  %53 = getelementptr inbounds nuw %struct.normal_encoding, ptr %52, i32 0, i32 8
  %54 = load ptr, ptr %53, align 8, !tbaa !63
  %55 = load ptr, ptr %6, align 8, !tbaa !45
  %56 = load ptr, ptr %7, align 8, !tbaa !4
  %57 = call i32 %54(ptr noundef %55, ptr noundef %56)
  %58 = icmp ne i32 %57, 0
  br i1 %58, label %59, label %62

59:                                               ; preds = %51
  %60 = load ptr, ptr %7, align 8, !tbaa !4
  %61 = load ptr, ptr %9, align 8, !tbaa !9
  store ptr %60, ptr %61, align 8, !tbaa !4
  store i32 0, ptr %5, align 4
  br label %156

62:                                               ; preds = %51
  %63 = load ptr, ptr %7, align 8, !tbaa !4
  %64 = getelementptr inbounds i8, ptr %63, i64 2
  store ptr %64, ptr %7, align 8, !tbaa !4
  br label %153

65:                                               ; preds = %34
  %66 = load ptr, ptr %8, align 8, !tbaa !4
  %67 = load ptr, ptr %7, align 8, !tbaa !4
  %68 = ptrtoint ptr %66 to i64
  %69 = ptrtoint ptr %67 to i64
  %70 = sub i64 %68, %69
  %71 = icmp slt i64 %70, 3
  br i1 %71, label %72, label %73

72:                                               ; preds = %65
  store i32 -2, ptr %5, align 4
  br label %156

73:                                               ; preds = %65
  %74 = load ptr, ptr %6, align 8, !tbaa !45
  %75 = getelementptr inbounds nuw %struct.normal_encoding, ptr %74, i32 0, i32 9
  %76 = load ptr, ptr %75, align 8, !tbaa !66
  %77 = load ptr, ptr %6, align 8, !tbaa !45
  %78 = load ptr, ptr %7, align 8, !tbaa !4
  %79 = call i32 %76(ptr noundef %77, ptr noundef %78)
  %80 = icmp ne i32 %79, 0
  br i1 %80, label %81, label %84

81:                                               ; preds = %73
  %82 = load ptr, ptr %7, align 8, !tbaa !4
  %83 = load ptr, ptr %9, align 8, !tbaa !9
  store ptr %82, ptr %83, align 8, !tbaa !4
  store i32 0, ptr %5, align 4
  br label %156

84:                                               ; preds = %73
  %85 = load ptr, ptr %7, align 8, !tbaa !4
  %86 = getelementptr inbounds i8, ptr %85, i64 3
  store ptr %86, ptr %7, align 8, !tbaa !4
  br label %153

87:                                               ; preds = %34
  %88 = load ptr, ptr %8, align 8, !tbaa !4
  %89 = load ptr, ptr %7, align 8, !tbaa !4
  %90 = ptrtoint ptr %88 to i64
  %91 = ptrtoint ptr %89 to i64
  %92 = sub i64 %90, %91
  %93 = icmp slt i64 %92, 4
  br i1 %93, label %94, label %95

94:                                               ; preds = %87
  store i32 -2, ptr %5, align 4
  br label %156

95:                                               ; preds = %87
  %96 = load ptr, ptr %6, align 8, !tbaa !45
  %97 = getelementptr inbounds nuw %struct.normal_encoding, ptr %96, i32 0, i32 10
  %98 = load ptr, ptr %97, align 8, !tbaa !69
  %99 = load ptr, ptr %6, align 8, !tbaa !45
  %100 = load ptr, ptr %7, align 8, !tbaa !4
  %101 = call i32 %98(ptr noundef %99, ptr noundef %100)
  %102 = icmp ne i32 %101, 0
  br i1 %102, label %103, label %106

103:                                              ; preds = %95
  %104 = load ptr, ptr %7, align 8, !tbaa !4
  %105 = load ptr, ptr %9, align 8, !tbaa !9
  store ptr %104, ptr %105, align 8, !tbaa !4
  store i32 0, ptr %5, align 4
  br label %156

106:                                              ; preds = %95
  %107 = load ptr, ptr %7, align 8, !tbaa !4
  %108 = getelementptr inbounds i8, ptr %107, i64 4
  store ptr %108, ptr %7, align 8, !tbaa !4
  br label %153

109:                                              ; preds = %34, %34, %34
  %110 = load ptr, ptr %7, align 8, !tbaa !4
  %111 = load ptr, ptr %9, align 8, !tbaa !9
  store ptr %110, ptr %111, align 8, !tbaa !4
  store i32 0, ptr %5, align 4
  br label %156

112:                                              ; preds = %34
  %113 = load ptr, ptr %7, align 8, !tbaa !4
  %114 = getelementptr inbounds i8, ptr %113, i64 1
  store ptr %114, ptr %7, align 8, !tbaa !4
  %115 = load ptr, ptr %8, align 8, !tbaa !4
  %116 = load ptr, ptr %7, align 8, !tbaa !4
  %117 = ptrtoint ptr %115 to i64
  %118 = ptrtoint ptr %116 to i64
  %119 = sub i64 %117, %118
  %120 = icmp sge i64 %119, 1
  br i1 %120, label %122, label %121

121:                                              ; preds = %112
  store i32 -1, ptr %5, align 4
  br label %156

122:                                              ; preds = %112
  %123 = load ptr, ptr %7, align 8, !tbaa !4
  %124 = load i8, ptr %123, align 1, !tbaa !13
  %125 = sext i8 %124 to i32
  %126 = icmp eq i32 %125, 45
  br i1 %126, label %127, label %149

127:                                              ; preds = %122
  %128 = load ptr, ptr %7, align 8, !tbaa !4
  %129 = getelementptr inbounds i8, ptr %128, i64 1
  store ptr %129, ptr %7, align 8, !tbaa !4
  %130 = load ptr, ptr %8, align 8, !tbaa !4
  %131 = load ptr, ptr %7, align 8, !tbaa !4
  %132 = ptrtoint ptr %130 to i64
  %133 = ptrtoint ptr %131 to i64
  %134 = sub i64 %132, %133
  %135 = icmp sge i64 %134, 1
  br i1 %135, label %137, label %136

136:                                              ; preds = %127
  store i32 -1, ptr %5, align 4
  br label %156

137:                                              ; preds = %127
  %138 = load ptr, ptr %7, align 8, !tbaa !4
  %139 = load i8, ptr %138, align 1, !tbaa !13
  %140 = sext i8 %139 to i32
  %141 = icmp eq i32 %140, 62
  br i1 %141, label %145, label %142

142:                                              ; preds = %137
  %143 = load ptr, ptr %7, align 8, !tbaa !4
  %144 = load ptr, ptr %9, align 8, !tbaa !9
  store ptr %143, ptr %144, align 8, !tbaa !4
  store i32 0, ptr %5, align 4
  br label %156

145:                                              ; preds = %137
  %146 = load ptr, ptr %7, align 8, !tbaa !4
  %147 = getelementptr inbounds i8, ptr %146, i64 1
  %148 = load ptr, ptr %9, align 8, !tbaa !9
  store ptr %147, ptr %148, align 8, !tbaa !4
  store i32 13, ptr %5, align 4
  br label %156

149:                                              ; preds = %122
  br label %153

150:                                              ; preds = %34
  %151 = load ptr, ptr %7, align 8, !tbaa !4
  %152 = getelementptr inbounds i8, ptr %151, i64 1
  store ptr %152, ptr %7, align 8, !tbaa !4
  br label %153

153:                                              ; preds = %150, %149, %106, %84, %62
  br label %27, !llvm.loop !97

154:                                              ; preds = %27
  br label %155

155:                                              ; preds = %154, %4
  store i32 -1, ptr %5, align 4
  br label %156

156:                                              ; preds = %155, %145, %142, %136, %121, %109, %103, %94, %81, %72, %59, %50, %21
  %157 = load i32, ptr %5, align 4
  ret i32 %157
}