; Function Attrs: nounwind uwtable
define internal fastcc range(i32 -2, 14) i32 @normal_scanComment(ptr noundef %0, ptr noundef %1, ptr noundef %2, ptr noundef writeonly captures(none) %3) unnamed_addr #6 {
  %5 = ptrtoint ptr %2 to i64
  %6 = ptrtoint ptr %1 to i64
  %7 = sub i64 %5, %6
  %8 = icmp sgt i64 %7, 0
  br i1 %8, label %9, label %.loopexit

9:                                                ; preds = %4
  %10 = load i8, ptr %1, align 1, !tbaa !9
  %11 = icmp eq i8 %10, 45
  br i1 %11, label %12, label %.loopexit.sink.split

12:                                               ; preds = %9
  %13 = getelementptr inbounds nuw i8, ptr %1, i64 1
  %14 = ptrtoint ptr %13 to i64
  %15 = sub i64 %5, %14
  %16 = icmp sgt i64 %15, 0
  br i1 %16, label %.lr.ph, label %.loopexit

.lr.ph:                                           ; preds = %12
  %17 = getelementptr inbounds nuw i8, ptr %0, i64 128
  %18 = getelementptr inbounds nuw i8, ptr %0, i64 448
  %19 = getelementptr inbounds nuw i8, ptr %0, i64 440
  %20 = getelementptr inbounds nuw i8, ptr %0, i64 432
  br label %21

21:                                               ; preds = %.lr.ph, %67
  %22 = phi i64 [ %15, %.lr.ph ], [ %69, %67 ]
  %.04958 = phi ptr [ %13, %.lr.ph ], [ %.1, %67 ]
  %23 = load i8, ptr %.04958, align 1, !tbaa !9
  %24 = zext i8 %23 to i64
  %25 = getelementptr inbounds nuw [256 x i8], ptr %17, i64 0, i64 %24
  %26 = load i8, ptr %25, align 1, !tbaa !9
  switch i8 %26, label %65 [
    i8 5, label %27
    i8 6, label %34
    i8 7, label %41
    i8 0, label %.loopexit.sink.split
    i8 1, label %.loopexit.sink.split
    i8 8, label %.loopexit.sink.split
    i8 27, label %48
  ]

27:                                               ; preds = %21
  %28 = icmp eq i64 %22, 1
  br i1 %28, label %.loopexit, label %29

29:                                               ; preds = %27
  %30 = load ptr, ptr %20, align 8, !tbaa !55
  %31 = tail call i32 %30(ptr noundef nonnull %0, ptr noundef nonnull %.04958) #13
  %.not52 = icmp eq i32 %31, 0
  br i1 %.not52, label %32, label %.loopexit.sink.split

32:                                               ; preds = %29
  %33 = getelementptr inbounds nuw i8, ptr %.04958, i64 2
  br label %67

34:                                               ; preds = %21
  %35 = icmp samesign ult i64 %22, 3
  br i1 %35, label %.loopexit, label %36

36:                                               ; preds = %34
  %37 = load ptr, ptr %19, align 8, !tbaa !57
  %38 = tail call i32 %37(ptr noundef nonnull %0, ptr noundef nonnull %.04958) #13
  %.not51 = icmp eq i32 %38, 0
  br i1 %.not51, label %39, label %.loopexit.sink.split

39:                                               ; preds = %36
  %40 = getelementptr inbounds nuw i8, ptr %.04958, i64 3
  br label %67

41:                                               ; preds = %21
  %42 = icmp samesign ult i64 %22, 4
  br i1 %42, label %.loopexit, label %43

43:                                               ; preds = %41
  %44 = load ptr, ptr %18, align 8, !tbaa !59
  %45 = tail call i32 %44(ptr noundef nonnull %0, ptr noundef nonnull %.04958) #13
  %.not = icmp eq i32 %45, 0
  br i1 %.not, label %46, label %.loopexit.sink.split

46:                                               ; preds = %43
  %47 = getelementptr inbounds nuw i8, ptr %.04958, i64 4
  br label %67

48:                                               ; preds = %21
  %49 = getelementptr inbounds nuw i8, ptr %.04958, i64 1
  %50 = ptrtoint ptr %49 to i64
  %51 = sub i64 %5, %50
  %52 = icmp sgt i64 %51, 0
  br i1 %52, label %53, label %.loopexit

53:                                               ; preds = %48
  %54 = load i8, ptr %49, align 1, !tbaa !9
  %55 = icmp eq i8 %54, 45
  br i1 %55, label %56, label %67

56:                                               ; preds = %53
  %57 = getelementptr inbounds nuw i8, ptr %.04958, i64 2
  %58 = ptrtoint ptr %57 to i64
  %59 = sub i64 %5, %58
  %60 = icmp sgt i64 %59, 0
  br i1 %60, label %61, label %.loopexit

61:                                               ; preds = %56
  %62 = load i8, ptr %57, align 1, !tbaa !9
  %63 = icmp eq i8 %62, 62
  %64 = getelementptr inbounds nuw i8, ptr %.04958, i64 3
  %spec.select = select i1 %63, ptr %64, ptr %57
  %spec.select77 = select i1 %63, i32 13, i32 0
  br label %.loopexit.sink.split

65:                                               ; preds = %21
  %66 = getelementptr inbounds nuw i8, ptr %.04958, i64 1
  br label %67

67:                                               ; preds = %53, %65, %46, %39, %32
  %.1 = phi ptr [ %66, %65 ], [ %49, %53 ], [ %47, %46 ], [ %40, %39 ], [ %33, %32 ]
  %68 = ptrtoint ptr %.1 to i64
  %69 = sub i64 %5, %68
  %70 = icmp sgt i64 %69, 0
  br i1 %70, label %21, label %.loopexit, !llvm.loop !89

.loopexit.sink.split:                             ; preds = %21, %21, %21, %43, %36, %29, %61, %9
  %.sink = phi ptr [ %1, %9 ], [ %spec.select, %61 ], [ %.04958, %29 ], [ %.04958, %36 ], [ %.04958, %43 ], [ %.04958, %21 ], [ %.04958, %21 ], [ %.04958, %21 ]
  %.0.ph = phi i32 [ 0, %9 ], [ %spec.select77, %61 ], [ 0, %29 ], [ 0, %36 ], [ 0, %43 ], [ 0, %21 ], [ 0, %21 ], [ 0, %21 ]
  store ptr %.sink, ptr %3, align 8, !tbaa !4
  br label %.loopexit

.loopexit:                                        ; preds = %27, %34, %41, %48, %67, %.loopexit.sink.split, %12, %4, %56
  %.0 = phi i32 [ -1, %56 ], [ -1, %4 ], [ -1, %12 ], [ %.0.ph, %.loopexit.sink.split ], [ -2, %27 ], [ -2, %34 ], [ -2, %41 ], [ -1, %48 ], [ -1, %67 ]
  ret i32 %.0
}